target datalayout = "e-m:e-p270:32:32-p271:32:32-p272:64:64-i64:64-i128:128-f80:128-n8:16:32:64-S128"
target triple = "x86_64-pc-linux-gnu"

%struct.darktable_t = type { %struct.dt_codepath_t, i32, i32, ptr, ptr, ptr, ptr, ptr, ptr, ptr, ptr, ptr, ptr, ptr, ptr, ptr, ptr, ptr, ptr, ptr, ptr, ptr, ptr, ptr, ptr, ptr, ptr, ptr, ptr, ptr, [64 x %struct.dt_pthread_mutex_t], %struct.dt_pthread_mutex_t, %struct.dt_pthread_mutex_t, %struct.dt_pthread_mutex_t, %struct.dt_pthread_mutex_t, %struct.dt_pthread_mutex_t, ptr, ptr, ptr, ptr, ptr, ptr, ptr, ptr, ptr, ptr, ptr, ptr, %struct.dt_lua_state_t, ptr, double, ptr, i32, [46 x i32], i32, ptr, ptr, %struct.dt_sys_resources_t, %struct.dt_backthumb_t, %struct.dt_gimp_t }
%struct.dt_codepath_t = type { i8, [3 x i8] }
%struct.dt_pthread_mutex_t = type { %union.pthread_mutex_t }
%union.pthread_mutex_t = type { %struct.__pthread_mutex_s }
%struct.__pthread_mutex_s = type { i32, i32, i32, i32, i32, i16, i16, %struct.__pthread_internal_list }
%struct.__pthread_internal_list = type { ptr, ptr }
%struct.dt_lua_state_t = type { i32 }
%struct.dt_sys_resources_t = type { i64, i64, ptr, ptr, i32, i32, i32 }
%struct.dt_backthumb_t = type { double, double, i32, i32, i32, i32 }
%struct.dt_gimp_t = type { i32, ptr, ptr, i32, i32 }

@.str = private unnamed_addr constant [15 x i8] c"module toolbox\00", align 1
@darktable = external local_unnamed_addr global %struct.darktable_t, align 8

; Function Attrs: mustprogress nofree norecurse nosync nounwind willreturn memory(none) uwtable
define noundef i32 @dt_module_dt_version() local_unnamed_addr #0 {
  ret i32 25
}

; Function Attrs: mustprogress nofree norecurse nosync nounwind willreturn memory(none) uwtable
define noundef i32 @dt_module_mod_version() local_unnamed_addr #0 {
  ret i32 1
}

; Function Attrs: nounwind uwtable
define ptr @name(ptr nocapture noundef readnone %0) local_unnamed_addr #1 {
  %2 = tail call ptr @dcgettext(ptr noundef null, ptr noundef nonnull @.str, i32 noundef 5) #8
  ret ptr %2
}

; Function Attrs: nounwind
declare ptr @dcgettext(ptr noundef, ptr noundef, i32 noundef) local_unnamed_addr #2

; Function Attrs: mustprogress nofree norecurse nosync nounwind willreturn memory(none) uwtable
define noundef i32 @views(ptr nocapture noundef readnone %0) local_unnamed_addr #0 {
  ret i32 7
}

; Function Attrs: mustprogress nofree norecurse nosync nounwind willreturn memory(none) uwtable
define noundef i32 @container(ptr nocapture noundef readnone %0) local_unnamed_addr #0 {
  ret i32 14
}

; Function Attrs: mustprogress nofree norecurse nosync nounwind willreturn memory(none) uwtable
define noundef i32 @expandable(ptr nocapture noundef readnone %0) local_unnamed_addr #0 {
  ret i32 0
}

; Function Attrs: mustprogress nofree norecurse nosync nounwind willreturn memory(none) uwtable
define noundef i32 @position(ptr nocapture noundef readnone %0) local_unnamed_addr #0 {
  ret i32 100
}

; Function Attrs: nounwind uwtable
define void @gui_init(ptr noundef %0) local_unnamed_addr #1 {
  %2 = tail call noalias dereferenceable_or_null(16) ptr @g_malloc0(i64 noundef 16) #9
  %3 = getelementptr inbounds i8, ptr %0, i64 280
  store ptr %2, ptr %3, align 8, !tbaa !6
  %4 = tail call ptr @gtk_box_new(i32 noundef 0, i32 noundef 0) #8
  %5 = getelementptr inbounds i8, ptr %0, i64 416
  store ptr %4, ptr %5, align 8, !tbaa !13
  store ptr %4, ptr %2, align 8, !tbaa !14
  %6 = load ptr, ptr getelementptr inbounds (%struct.darktable_t, ptr @darktable, i64 0, i32 11), align 8, !tbaa !16
  %7 = getelementptr inbounds i8, ptr %6, i64 288
  store ptr %0, ptr %7, align 8, !tbaa !26
  %8 = getelementptr inbounds i8, ptr %6, i64 296
  store ptr @_lib_module_toolbox_add, ptr %8, align 8, !tbaa !40
  ret void
}

; Function Attrs: allocsize(0)
declare noalias ptr @g_malloc0(i64 noundef) local_unnamed_addr #3

declare ptr @gtk_box_new(i32 noundef, i32 noundef) local_unnamed_addr #4

; Function Attrs: nounwind uwtable
define internal void @_lib_module_toolbox_add(ptr nocapture noundef readonly %0, ptr noundef %1, i32 noundef %2) #1 {
  %4 = getelementptr inbounds i8, ptr %0, i64 280
  %5 = load ptr, ptr %4, align 8, !tbaa !6
  %6 = load ptr, ptr %5, align 8, !tbaa !14
  %7 = tail call i64 @gtk_box_get_type() #10
  %8 = tail call ptr @g_type_check_instance_cast(ptr noundef %6, i64 noundef %7) #8
  tail call void @gtk_box_pack_start(ptr noundef %8, ptr noundef %1, i32 noundef 1, i32 noundef 0, i32 noundef 0) #8
  tail call void @gtk_widget_show_all(ptr noundef %1) #8
  %9 = tail call noalias dereferenceable_or_null(16) ptr @malloc(i64 noundef 16) #9
  store ptr %1, ptr %9, align 8, !tbaa !41
  %10 = getelementptr inbounds i8, ptr %9, i64 8
  store i32 %2, ptr %10, align 8, !tbaa !43
  %11 = getelementptr inbounds i8, ptr %5, i64 8
  %12 = load ptr, ptr %11, align 8, !tbaa !44
  %13 = tail call ptr @g_list_prepend(ptr noundef %12, ptr noundef nonnull %9) #8
  store ptr %13, ptr %11, align 8, !tbaa !44
  ret void
}

; Function Attrs: nounwind uwtable
define void @gui_cleanup(ptr nocapture noundef %0) local_unnamed_addr #1 {
  %2 = getelementptr inbounds i8, ptr %0, i64 280
  %3 = load ptr, ptr %2, align 8, !tbaa !6
  %4 = getelementptr inbounds i8, ptr %3, i64 8
  %5 = load ptr, ptr %4, align 8, !tbaa !44
  tail call void @g_list_free_full(ptr noundef %5, ptr noundef nonnull @free) #8
  %6 = load ptr, ptr %2, align 8, !tbaa !6
  tail call void @g_free(ptr noundef %6) #8
  store ptr null, ptr %2, align 8, !tbaa !6
  ret void
}

declare void @g_list_free_full(ptr noundef, ptr noundef) local_unnamed_addr #4

; Function Attrs: mustprogress nounwind willreturn allockind("free") memory(argmem: readwrite, inaccessiblemem: readwrite)
declare void @free(ptr allocptr nocapture noundef) #5

declare void @g_free(ptr noundef) local_unnamed_addr #4

; Function Attrs: nounwind uwtable
define void @view_enter(ptr nocapture noundef readonly %0, ptr nocapture noundef readnone %1, ptr noundef %2) local_unnamed_addr #1 {
  %4 = getelementptr inbounds i8, ptr %0, i64 280
  %5 = load ptr, ptr %4, align 8, !tbaa !6
  %6 = getelementptr inbounds i8, ptr %2, i64 64
  %7 = load ptr, ptr %6, align 8, !tbaa !45
  %8 = tail call i32 %7(ptr noundef %2) #8
  %9 = getelementptr inbounds i8, ptr %5, i64 8
  %10 = load ptr, ptr %9, align 8, !tbaa !48
  %11 = icmp eq ptr %10, null
  br i1 %11, label %12, label %13

12:                                               ; preds = %23, %3
  ret void

13:                                               ; preds = %23, %3
  %14 = phi ptr [ %25, %23 ], [ %10, %3 ]
  %15 = load ptr, ptr %14, align 8, !tbaa !49
  %16 = getelementptr inbounds i8, ptr %15, i64 8
  %17 = load i32, ptr %16, align 8, !tbaa !43
  %18 = and i32 %17, %8
  %19 = icmp eq i32 %18, 0
  %20 = load ptr, ptr %15, align 8, !tbaa !41
  br i1 %19, label %22, label %21

21:                                               ; preds = %13
  tail call void @gtk_widget_show_all(ptr noundef %20) #8
  br label %23

22:                                               ; preds = %13
  tail call void @gtk_widget_hide(ptr noundef %20) #8
  br label %23

23:                                               ; preds = %22, %21
  %24 = getelementptr inbounds i8, ptr %14, i64 8
  %25 = load ptr, ptr %24, align 8, !tbaa !48
  %26 = icmp eq ptr %25, null
  br i1 %26, label %12, label %13
}

declare void @gtk_widget_show_all(ptr noundef) local_unnamed_addr #4

declare void @gtk_widget_hide(ptr noundef) local_unnamed_addr #4

declare void @gtk_box_pack_start(ptr noundef, ptr noundef, i32 noundef, i32 noundef, i32 noundef) local_unnamed_addr #4

declare ptr @g_type_check_instance_cast(ptr noundef, i64 noundef) local_unnamed_addr #4

; Function Attrs: mustprogress nofree nosync nounwind willreturn memory(none)
declare i64 @gtk_box_get_type() local_unnamed_addr #6

; Function Attrs: mustprogress nofree nounwind willreturn allockind("alloc,uninitialized") allocsize(0) memory(inaccessiblemem: readwrite)
declare noalias noundef ptr @malloc(i64 noundef) local_unnamed_addr #7

declare ptr @g_list_prepend(ptr noundef, ptr noundef) local_unnamed_addr #4


!llvm.module.flags = !{!0, !1, !2, !3, !4, !5}

!0 = !{i32 7, !"Dwarf Version", i32 5}
!1 = !{i32 2, !"Debug Info Version", i32 3}
!2 = !{i32 1, !"wchar_size", i32 4}
!3 = !{i32 8, !"PIC Level", i32 2}
!4 = !{i32 7, !"uwtable", i32 2}
!5 = !{i32 7, !"debug-info-assignment-tracking", i1 true}
!6 = !{!7, !12, i64 280}
!7 = !{!"dt_lib_module_t", !8, i64 0, !12, i64 48, !12, i64 56, !12, i64 64, !12, i64 72, !12, i64 80, !12, i64 88, !12, i64 96, !12, i64 104, !12, i64 112, !12, i64 120, !12, i64 128, !12, i64 136, !12, i64 144, !12, i64 152, !12, i64 160, !12, i64 168, !12, i64 176, !12, i64 184, !12, i64 192, !12, i64 200, !12, i64 208, !12, i64 216, !12, i64 224, !12, i64 232, !12, i64 240, !12, i64 248, !12, i64 256, !12, i64 264, !12, i64 272, !12, i64 280, !10, i64 288, !12, i64 416, !12, i64 424, !9, i64 432, !12, i64 440, !12, i64 448, !12, i64 456, !12, i64 464, !9, i64 472, !9, i64 476}
!8 = !{!"dt_action_t", !9, i64 0, !12, i64 8, !12, i64 16, !12, i64 24, !12, i64 32, !12, i64 40}
!9 = !{!"int", !10, i64 0}
!10 = !{!"omnipotent char", !11, i64 0}
!11 = !{!"Simple C/C++ TBAA"}
!12 = !{!"any pointer", !10, i64 0}
!13 = !{!7, !12, i64 416}
!14 = !{!15, !12, i64 0}
!15 = !{!"dt_lib_module_toolbox_t", !12, i64 0, !12, i64 8}
!16 = !{!17, !12, i64 80}
!17 = !{!"darktable_t", !18, i64 0, !9, i64 4, !9, i64 8, !12, i64 16, !12, i64 24, !12, i64 32, !12, i64 40, !12, i64 48, !12, i64 56, !12, i64 64, !12, i64 72, !12, i64 80, !12, i64 88, !12, i64 96, !12, i64 104, !12, i64 112, !12, i64 120, !12, i64 128, !12, i64 136, !12, i64 144, !12, i64 152, !12, i64 160, !12, i64 168, !12, i64 176, !12, i64 184, !12, i64 192, !12, i64 200, !12, i64 208, !12, i64 216, !12, i64 224, !10, i64 232, !19, i64 2792, !19, i64 2832, !19, i64 2872, !19, i64 2912, !19, i64 2952, !12, i64 2992, !12, i64 3000, !12, i64 3008, !12, i64 3016, !12, i64 3024, !12, i64 3032, !12, i64 3040, !12, i64 3048, !12, i64 3056, !12, i64 3064, !12, i64 3072, !12, i64 3080, !20, i64 3088, !12, i64 3096, !21, i64 3104, !12, i64 3112, !9, i64 3120, !10, i64 3124, !9, i64 3308, !12, i64 3312, !12, i64 3320, !22, i64 3328, !24, i64 3376, !25, i64 3408}
!18 = !{!"dt_codepath_t", !9, i64 0}
!19 = !{!"dt_pthread_mutex_t", !10, i64 0}
!20 = !{!"", !9, i64 0}
!21 = !{!"double", !10, i64 0}
!22 = !{!"dt_sys_resources_t", !23, i64 0, !23, i64 8, !12, i64 16, !12, i64 24, !9, i64 32, !9, i64 36, !9, i64 40}
!23 = !{!"long", !10, i64 0}
!24 = !{!"dt_backthumb_t", !21, i64 0, !21, i64 8, !9, i64 16, !9, i64 20, !9, i64 24, !9, i64 28}
!25 = !{!"dt_gimp_t", !9, i64 0, !12, i64 8, !12, i64 16, !9, i64 24, !9, i64 28}
!26 = !{!27, !12, i64 288}
!27 = !{!"dt_view_manager_t", !12, i64 0, !12, i64 8, !12, i64 16, !28, i64 24, !29, i64 56, !30, i64 88, !30, i64 128, !31, i64 168, !32, i64 216, !12, i64 232, !12, i64 240, !12, i64 248, !12, i64 256, !12, i64 264, !33, i64 272}
!28 = !{!"dt_history_copy_item_t", !12, i64 0, !12, i64 8, !9, i64 16, !9, i64 20, !9, i64 24}
!29 = !{!"", !12, i64 0, !12, i64 8, !12, i64 16, !9, i64 24, !9, i64 28}
!30 = !{!"dt_act_on_cache_t", !12, i64 0, !9, i64 8, !9, i64 12, !9, i64 16, !9, i64 20, !12, i64 24, !9, i64 32, !9, i64 36}
!31 = !{!"", !12, i64 0, !12, i64 8, !12, i64 16, !12, i64 24, !12, i64 32, !12, i64 40}
!32 = !{!"", !9, i64 0, !9, i64 4, !9, i64 8}
!33 = !{!"", !34, i64 0, !34, i64 16, !35, i64 32, !36, i64 64, !34, i64 88, !37, i64 104, !38, i64 144, !34, i64 152, !39, i64 168, !35, i64 264, !38, i64 296, !34, i64 304}
!34 = !{!"", !12, i64 0, !12, i64 8}
!35 = !{!"", !12, i64 0, !12, i64 8, !12, i64 16, !12, i64 24}
!36 = !{!"", !12, i64 0, !12, i64 8, !12, i64 16}
!37 = !{!"", !12, i64 0, !12, i64 8, !12, i64 16, !12, i64 24, !12, i64 32}
!38 = !{!"", !12, i64 0}
!39 = !{!"", !12, i64 0, !12, i64 8, !12, i64 16, !12, i64 24, !12, i64 32, !12, i64 40, !12, i64 48, !12, i64 56, !12, i64 64, !12, i64 72, !12, i64 80, !12, i64 88}
!40 = !{!27, !12, i64 296}
!41 = !{!42, !12, i64 0}
!42 = !{!"child_data_t", !12, i64 0, !9, i64 8}
!43 = !{!42, !9, i64 8}
!44 = !{!15, !12, i64 8}
!45 = !{!46, !12, i64 64}
!46 = !{!"dt_view_t", !8, i64 0, !12, i64 48, !12, i64 56, !12, i64 64, !12, i64 72, !12, i64 80, !12, i64 88, !12, i64 96, !12, i64 104, !12, i64 112, !12, i64 120, !12, i64 128, !12, i64 136, !12, i64 144, !12, i64 152, !12, i64 160, !12, i64 168, !12, i64 176, !12, i64 184, !12, i64 192, !12, i64 200, !12, i64 208, !10, i64 216, !12, i64 280, !12, i64 288, !9, i64 296, !9, i64 300, !47, i64 304, !47, i64 308, !47, i64 312, !47, i64 316, !47, i64 320, !47, i64 324, !47, i64 328, !47, i64 332}
!47 = !{!"float", !10, i64 0}
!48 = !{!12, !12, i64 0}
!49 = !{!50, !12, i64 0}
!50 = !{!"_GList", !12, i64 0, !12, i64 8, !12, i64 16}
